Certificate:
    Data:
        Version: 1 (0x0)
        Serial Number: 4660 (0x1234)
        Signature Algorithm: md5WithRSAEncryption
        Issuer: C=AU, ST=Some-State, O=Peacemakr CA
        Validity
            Not Before: Feb 20 20:07:16 2021 GMT
            Not After : Feb 20 20:07:16 2022 GMT
        Subject: C=AU, ST=Some-State, O=Peacemakr
        Subject Public Key Info:
            Public Key Algorithm: rsaEncryption
                RSA Public-Key: (4096 bit)
                Modulus:
                    00:c2:8b:4f:a0:b4:29:3c:c8:d4:97:1b:4e:96:dc:
                    5d:5c:70:d2:c7:4e:8f:69:de:92:83:72:6d:6d:47:
                    78:49:04:0b:c4:b4:ff:12:b7:e5:19:a4:8b:69:21:
                    5d:62:a7:27:33:6f:1e:c9:b0:ad:64:e2:bb:28:34:
                    4a:ce:d7:5c:51:c9:46:12:ca:cf:27:fe:89:d3:9f:
                    05:4a:db:2a:9e:d7:c7:65:db:d8:c7:32:f4:43:f7:
                    00:fb:e8:ef:d8:2d:52:de:50:a3:dd:7d:f9:75:d7:
                    bc:0a:68:17:ba:4b:5e:73:bc:d0:c4:a9:d2:bf:bd:
                    df:d9:7a:e2:ac:ae:0a:8b:5e:ec:b1:d8:90:2a:f0:
                    04:43:09:01:1e:4b:06:7f:bc:a5:8c:2b:60:3e:36:
                    da:77:92:01:29:bf:6d:76:3d:68:ee:4b:39:41:1c:
                    00:f5:a6:e5:ea:11:da:be:63:3a:62:de:ea:2b:aa:
                    18:db:60:db:44:16:73:17:e6:15:a5:6b:0b:7d:66:
                    16:ec:ba:2c:1f:fd:95:bb:69:54:ff:b4:84:6c:27:
                    fb:42:5b:30:ea:d4:87:0d:4f:46:b7:a3:4a:09:e5:
                    8b:a9:39:dd:ee:40:8a:98:47:d0:9f:38:83:8e:82:
                    5f:72:bc:f0:7f:a0:11:3e:ca:da:2b:9b:70:3e:1a:
                    ef:1d:44:b6:9c:07:c7:fe:e3:8d:22:60:37:f2:b3:
                    42:5b:a5:b0:db:f8:ea:6d:f1:c8:b8:4e:e2:e7:02:
                    42:15:1a:53:a5:29:11:42:f5:41:df:7d:c5:e6:b3:
                    40:04:82:0d:a5:d1:35:a0:80:0e:75:dd:72:6e:d4:
                    2c:2c:86:fc:28:f9:5a:9b:20:93:42:3f:31:7a:0a:
                    84:7c:fd:84:80:d2:43:11:3e:b6:42:9e:a9:01:40:
                    74:93:a7:90:28:a4:e7:22:75:71:55:9b:56:23:90:
                    32:a3:b1:01:d9:c2:5f:7e:2e:35:76:90:92:6b:af:
                    f4:b3:1d:66:89:38:f7:8e:62:33:1c:cb:b7:32:09:
                    93:29:fa:3a:54:28:63:20:9b:49:d1:d6:19:1a:50:
                    35:38:5a:14:4e:ac:e2:6f:0a:40:d3:90:54:52:ab:
                    de:a2:25:00:ea:f5:6c:9a:09:1d:9c:d7:50:8b:33:
                    6d:47:49:b4:95:ea:cf:c1:ee:b5:43:02:7f:c2:82:
                    c9:25:4a:2e:56:d1:ee:51:4e:74:66:1a:83:d4:80:
                    c8:fd:84:cf:b8:32:e1:f6:76:c4:fa:71:0c:b6:96:
                    88:be:62:86:35:4c:b1:37:50:1e:47:de:62:ed:05:
                    28:2d:96:c5:cc:90:93:04:cd:f6:ea:28:66:be:01:
                    d0:ea:43
                Exponent: 65537 (0x10001)
    Signature Algorithm: md5WithRSAEncryption
         5f:a2:5a:3c:18:d2:9e:6a:8c:05:b9:32:ac:56:4d:e1:e9:a4:
         ee:1a:e4:17:4c:2d:37:22:b6:8a:4c:00:88:fd:0a:a2:a7:e8:
         c6:74:94:b3:cc:45:4e:57:91:d7:59:a3:3f:65:a5:33:3e:6d:
         f8:47:e0:ec:c4:96:26:b7:50:25:74:03:42:e1:0f:f3:6d:a5:
         15:52:f0:12:a9:56:8b:ac:2e:4c:d3:d3:36:25:60:ef:11:59:
         50:16:e7:61:ed:8b:f1:46:12:18:00:6b:00:43:23:59:71:ab:
         57:9b:87:7b:e9:f3:40:20:a7:ea:fe:a9:58:11:af:a3:62:38:
         6c:26:93:f8:02:f6:c0:8e:4d:01:ae:3b:33:3e:fe:da:6d:73:
         eb:23:d5:fc:77:7e:b1:82:22:47:3d:7c:ad:3c:e2:48:e7:3b:
         87:1f:d5:b6:d6:2a:e8:62:e7:00:9e:90:a4:88:ee:02:b5:64:
         b8:96:9e:eb:63:14:66:11:5b:7f:37:13:5d:8a:ed:27:ab:5a:
         bf:0c:88:77:b8:80:a0:e0:f4:f3:e4:5c:e9:65:c5:79:e5:66:
         6d:37:de:eb:e6:9b:c6:c2:cf:97:7a:3f:6e:52:aa:3d:32:30:
         05:dd:a2:da:ea:07:67:29:7c:de:a5:06:67:f7:04:43:f0:44:
         4c:d5:17:59:01:84:e9:03:c7:21:59:16:de:08:4d:36:90:7a:
         58:6a:ba:52:0b:59:74:b9:f5:8f:03:6f:2c:27:1d:d1:43:45:
         36:93:da:7c:56:cf:8e:28:14:51:30:40:04:61:63:81:d9:bf:
         87:2a:28:50:b5:60:71:04:fc:82:72:fb:85:a9:75:8f:52:cf:
         63:97:38:74:ea:78:f5:d5:17:b7:c2:4a:62:c5:7f:63:e1:f3:
         e9:3a:ef:5b:23:be:d2:b0:94:04:e0:53:c4:f8:7e:5e:2d:94:
         b8:ed:31:03:22:34:16:18:0a:cb:d3:d5:72:1f:3b:03:d4:7c:
         3a:57:b9:5a:b1:ea:5e:6a:3d:5c:a0:5c:88:b1:de:83:03:71:
         8d:8e:3b:eb:35:2f:f7:12:c3:8c:d8:ec:e7:e1:28:bb:59:99:
         54:97:5a:c9:38:a7:73:bd:42:b4:87:1b:66:d7:68:63:e0:a3:
         d8:4b:a9:49:e0:cd:5c:78:78:d1:f3:b3:f1:a7:ae:d0:dc:61:
         ff:be:98:5f:e0:47:e9:e6:33:5f:60:4d:21:73:6a:5c:5b:c9:
         35:37:6e:2f:64:b4:a5:e2:15:4f:9d:16:33:07:ff:a6:75:18:
         e1:a0:67:99:54:01:1c:42:fb:40:ed:5a:60:a2:14:14:58:b6:
         20:6b:23:e0:cb:9e:c2:3f
-----BEGIN CERTIFICATE-----
MIIE5DCCAswCAhI0MA0GCSqGSIb3DQEBBAUAMDkxCzAJBgNVBAYTAkFVMRMwEQYD
VQQIDApTb21lLVN0YXRlMRUwEwYDVQQKDAxQZWFjZW1ha3IgQ0EwHhcNMjEwMjIw
MjAwNzE2WhcNMjIwMjIwMjAwNzE2WjA2MQswCQYDVQQGEwJBVTETMBEGA1UECAwK
U29tZS1TdGF0ZTESMBAGA1UECgwJUGVhY2VtYWtyMIICIjANBgkqhkiG9w0BAQEF
AAOCAg8AMIICCgKCAgEAwotPoLQpPMjUlxtOltxdXHDSx06Pad6Sg3JtbUd4SQQL
xLT/ErflGaSLaSFdYqcnM28eybCtZOK7KDRKztdcUclGEsrPJ/6J058FStsqntfH
ZdvYxzL0Q/cA++jv2C1S3lCj3X35dde8CmgXuktec7zQxKnSv73f2XrirK4Ki17s
sdiQKvAEQwkBHksGf7yljCtgPjbad5IBKb9tdj1o7ks5QRwA9abl6hHavmM6Yt7q
K6oY22DbRBZzF+YVpWsLfWYW7LosH/2Vu2lU/7SEbCf7Qlsw6tSHDU9Gt6NKCeWL
qTnd7kCKmEfQnziDjoJfcrzwf6ARPsraK5twPhrvHUS2nAfH/uONImA38rNCW6Ww
2/jqbfHIuE7i5wJCFRpTpSkRQvVB333F5rNABIINpdE1oIAOdd1ybtQsLIb8KPla
myCTQj8xegqEfP2EgNJDET62Qp6pAUB0k6eQKKTnInVxVZtWI5Ayo7EB2cJffi41
dpCSa6/0sx1miTj3jmIzHMu3MgmTKfo6VChjIJtJ0dYZGlA1OFoUTqzibwpA05BU
UqveoiUA6vVsmgkdnNdQizNtR0m0lerPwe61QwJ/woLJJUouVtHuUU50ZhqD1IDI
/YTPuDLh9nbE+nEMtpaIvmKGNUyxN1AeR95i7QUoLZbFzJCTBM326ihmvgHQ6kMC
AwEAATANBgkqhkiG9w0BAQQFAAOCAgEAX6JaPBjSnmqMBbkyrFZN4emk7hrkF0wt
NyK2ikwAiP0KoqfoxnSUs8xFTleR11mjP2WlMz5t+Efg7MSWJrdQJXQDQuEP822l
FVLwEqlWi6wuTNPTNiVg7xFZUBbnYe2L8UYSGABrAEMjWXGrV5uHe+nzQCCn6v6p
WBGvo2I4bCaT+AL2wI5NAa47Mz7+2m1z6yPV/Hd+sYIiRz18rTziSOc7hx/VttYq
6GLnAJ6QpIjuArVkuJae62MUZhFbfzcTXYrtJ6tavwyId7iAoOD08+Rc6WXFeeVm
bTfe6+abxsLPl3o/blKqPTIwBd2i2uoHZyl83qUGZ/cEQ/BETNUXWQGE6QPHIVkW
3ghNNpB6WGq6UgtZdLn1jwNvLCcd0UNFNpPafFbPjigUUTBABGFjgdm/hyooULVg
cQT8gnL7hal1j1LPY5c4dOp49dUXt8JKYsV/Y+Hz6TrvWyO+0rCUBOBTxPh+Xi2U
uO0xAyI0FhgKy9PVch87A9R8Ole5WrHqXmo9XKBciLHegwNxjY476zUv9xLDjNjs
5+Eou1mZVJdayTinc71CtIcbZtdoY+Cj2EupSeDNXHh40fOz8aeu0Nxh/76YX+BH
6eYzX2BNIXNqXFvJNTduL2S0peIVT50WMwf/pnUY4aBnmVQBHEL7QO1aYKIUFFi2
IGsj4Muewj8=
-----END CERTIFICATE-----
